target datalayout = "e-m:e-p270:32:32-p271:32:32-p272:64:64-i64:64-i128:128-f80:128-n8:16:32:64-S128"
target triple = "x86_64-pc-linux-gnu"

%struct.reftable_buf = type { i64, i64, ptr }
%struct.reftable_write_options = type { i8, i32, i8, i16, i32, i32, i8, i8, i64, ptr, ptr, ptr }
%struct.reftable_stack = type { %struct.stat, ptr, i32, ptr, %struct.reftable_write_options, ptr, i64, ptr, %struct.reftable_compaction_stats }
%struct.stat = type { i64, i64, i64, i32, i32, i32, i32, i64, i64, i64, i64, %struct.timespec, %struct.timespec, %struct.timespec, [3 x i64] }
%struct.timespec = type { i64, i64 }
%struct.reftable_compaction_stats = type { i64, i64, i32, i32 }
%struct.reftable_addition = type { %struct.reftable_flock, ptr, ptr, i64, i64, i64 }
%struct.reftable_flock = type { ptr, i32, ptr }

@.str.5 = private unnamed_addr constant [2 x i8] c"/\00", align 1

; Function Attrs: nounwind uwtable
define internal i32 @stack_filename(ptr noundef %0, ptr noundef %1, ptr noundef %2) #0 {
  %4 = alloca i32, align 4
  %5 = alloca ptr, align 8
  %6 = alloca ptr, align 8
  %7 = alloca ptr, align 8
  %8 = alloca i32, align 4
  %9 = alloca i32, align 4
  store ptr %0, ptr %5, align 8, !tbaa !58
  store ptr %1, ptr %6, align 8, !tbaa !13
  store ptr %2, ptr %7, align 8, !tbaa !9
  call void @llvm.lifetime.start.p0(i64 4, ptr %8) #10
  %10 = load ptr, ptr %5, align 8, !tbaa !58
  call void @reftable_buf_reset(ptr noundef %10)
  %11 = load ptr, ptr %5, align 8, !tbaa !58
  %12 = load ptr, ptr %6, align 8, !tbaa !13
  %13 = getelementptr inbounds nuw %struct.reftable_stack, ptr %12, i32 0, i32 3
  %14 = load ptr, ptr %13, align 8, !tbaa !34
  %15 = call i32 @reftable_buf_addstr(ptr noundef %11, ptr noundef %14)
  store i32 %15, ptr %8, align 4, !tbaa !15
  %16 = icmp slt i32 %15, 0
  br i1 %16, label %26, label %17

17:                                               ; preds = %3
  %18 = load ptr, ptr %5, align 8, !tbaa !58
  %19 = call i32 @reftable_buf_addstr(ptr noundef %18, ptr noundef @.str.5)
  store i32 %19, ptr %8, align 4, !tbaa !15
  %20 = icmp slt i32 %19, 0
  br i1 %20, label %26, label %21

21:                                               ; preds = %17
  %22 = load ptr, ptr %5, align 8, !tbaa !58
  %23 = load ptr, ptr %7, align 8, !tbaa !9
  %24 = call i32 @reftable_buf_addstr(ptr noundef %22, ptr noundef %23)
  store i32 %24, ptr %8, align 4, !tbaa !15
  %25 = icmp slt i32 %24, 0
  br i1 %25, label %26, label %28

26:                                               ; preds = %21, %17, %3
  %27 = load i32, ptr %8, align 4, !tbaa !15
  store i32 %27, ptr %4, align 4
  store i32 1, ptr %9, align 4
  br label %29

28:                                               ; preds = %21
  store i32 0, ptr %4, align 4
  store i32 1, ptr %9, align 4
  br label %29

29:                                               ; preds = %28, %26
  call void @llvm.lifetime.end.p0(i64 4, ptr %8) #10
  %30 = load i32, ptr %4, align 4
  ret i32 %30
}

; Function Attrs: nounwind uwtable
define internal void @reftable_addition_close(ptr noundef %0) #0 {
  %2 = alloca ptr, align 8
  %3 = alloca %struct.reftable_buf, align 8
  %4 = alloca i64, align 8
  store ptr %0, ptr %2, align 8, !tbaa !70
  call void @llvm.lifetime.start.p0(i64 24, ptr %3) #10
  call void @llvm.memset.p0.i64(ptr align 8 %3, i8 0, i64 24, i1 false)
  call void @llvm.lifetime.start.p0(i64 8, ptr %4) #10
  store i64 0, ptr %4, align 8, !tbaa !21
  br label %5

5:                                                ; preds = %39, %1
  %6 = load i64, ptr %4, align 8, !tbaa !21
  %7 = load ptr, ptr %2, align 8, !tbaa !70
  %8 = getelementptr inbounds nuw %struct.reftable_addition, ptr %7, i32 0, i32 3
  %9 = load i64, ptr %8, align 8, !tbaa !72
  %10 = icmp ult i64 %6, %9
  br i1 %10, label %11, label %42

11:                                               ; preds = %5
  %12 = load ptr, ptr %2, align 8, !tbaa !70
  %13 = getelementptr inbounds nuw %struct.reftable_addition, ptr %12, i32 0, i32 1
  %14 = load ptr, ptr %13, align 8, !tbaa !75
  %15 = load ptr, ptr %2, align 8, !tbaa !70
  %16 = getelementptr inbounds nuw %struct.reftable_addition, ptr %15, i32 0, i32 2
  %17 = load ptr, ptr %16, align 8, !tbaa !76
  %18 = load i64, ptr %4, align 8, !tbaa !21
  %19 = getelementptr inbounds nuw ptr, ptr %17, i64 %18
  %20 = load ptr, ptr %19, align 8, !tbaa !9
  %21 = call i32 @stack_filename(ptr noundef %3, ptr noundef %14, ptr noundef %20)
  %22 = icmp ne i32 %21, 0
  br i1 %22, label %27, label %23

23:                                               ; preds = %11
  %24 = getelementptr inbounds nuw %struct.reftable_buf, ptr %3, i32 0, i32 2
  %25 = load ptr, ptr %24, align 8, !tbaa !50
  %26 = call i32 @unlink(ptr noundef %25) #10
  br label %27

27:                                               ; preds = %23, %11
  %28 = load ptr, ptr %2, align 8, !tbaa !70
  %29 = getelementptr inbounds nuw %struct.reftable_addition, ptr %28, i32 0, i32 2
  %30 = load ptr, ptr %29, align 8, !tbaa !76
  %31 = load i64, ptr %4, align 8, !tbaa !21
  %32 = getelementptr inbounds nuw ptr, ptr %30, i64 %31
  %33 = load ptr, ptr %32, align 8, !tbaa !9
  call void @reftable_free(ptr noundef %33)
  %34 = load ptr, ptr %2, align 8, !tbaa !70
  %35 = getelementptr inbounds nuw %struct.reftable_addition, ptr %34, i32 0, i32 2
  %36 = load ptr, ptr %35, align 8, !tbaa !76
  %37 = load i64, ptr %4, align 8, !tbaa !21
  %38 = getelementptr inbounds nuw ptr, ptr %36, i64 %37
  store ptr null, ptr %38, align 8, !tbaa !9
  br label %39

39:                                               ; preds = %27
  %40 = load i64, ptr %4, align 8, !tbaa !21
  %41 = add i64 %40, 1
  store i64 %41, ptr %4, align 8, !tbaa !21
  br label %5, !llvm.loop !77

42:                                               ; preds = %5
  %43 = load ptr, ptr %2, align 8, !tbaa !70
  %44 = getelementptr inbounds nuw %struct.reftable_addition, ptr %43, i32 0, i32 2
  %45 = load ptr, ptr %44, align 8, !tbaa !76
  call void @reftable_free(ptr noundef %45)
  %46 = load ptr, ptr %2, align 8, !tbaa !70
  %47 = getelementptr inbounds nuw %struct.reftable_addition, ptr %46, i32 0, i32 2
  store ptr null, ptr %47, align 8, !tbaa !76
  %48 = load ptr, ptr %2, align 8, !tbaa !70
  %49 = getelementptr inbounds nuw %struct.reftable_addition, ptr %48, i32 0, i32 3
  store i64 0, ptr %49, align 8, !tbaa !72
  %50 = load ptr, ptr %2, align 8, !tbaa !70
  %51 = getelementptr inbounds nuw %struct.reftable_addition, ptr %50, i32 0, i32 4
  store i64 0, ptr %51, align 8, !tbaa !78
  %52 = load ptr, ptr %2, align 8, !tbaa !70
  %53 = getelementptr inbounds nuw %struct.reftable_addition, ptr %52, i32 0, i32 0
  %54 = call i32 @flock_release(ptr noundef %53)
  call void @reftable_buf_release(ptr noundef %3)
  call void @llvm.lifetime.end.p0(i64 8, ptr %4) #10
  call void @llvm.lifetime.end.p0(i64 24, ptr %3) #10
  ret void
}