; Function Attrs: nounwind uwtable
define internal fastcc void @reftable_addition_close(ptr noundef %0) unnamed_addr #0 {
  %2 = alloca %struct.reftable_buf, align 8
  call void @llvm.lifetime.start.p0(i64 24, ptr nonnull %2) #16
  call void @llvm.memset.p0.i64(ptr noundef nonnull align 8 dereferenceable(24) %2, i8 0, i64 24, i1 false)
  %3 = getelementptr inbounds nuw i8, ptr %0, i64 40
  %4 = load i64, ptr %3, align 8, !tbaa !67
  %.not17 = icmp eq i64 %4, 0
  br i1 %.not17, label %.._crit_edge_crit_edge, label %.lr.ph

.._crit_edge_crit_edge:                           ; preds = %1
  %.phi.trans.insert = getelementptr inbounds nuw i8, ptr %0, i64 32
  %.pre18 = load ptr, ptr %.phi.trans.insert, align 8, !tbaa !70
  br label %._crit_edge

.lr.ph:                                           ; preds = %1
  %5 = getelementptr inbounds nuw i8, ptr %0, i64 24
  %6 = getelementptr inbounds nuw i8, ptr %0, i64 32
  %7 = getelementptr inbounds nuw i8, ptr %2, i64 16
  %.pre = load ptr, ptr %6, align 8, !tbaa !70
  br label %8

8:                                                ; preds = %.lr.ph, %stack_filename.exit.thread
  %9 = phi ptr [ %.pre, %.lr.ph ], [ %27, %stack_filename.exit.thread ]
  %.016 = phi i64 [ 0, %.lr.ph ], [ %29, %stack_filename.exit.thread ]
  %10 = load ptr, ptr %5, align 8, !tbaa !71
  %11 = getelementptr inbounds nuw ptr, ptr %9, i64 %.016
  %12 = load ptr, ptr %11, align 8, !tbaa !43
  call void @reftable_buf_reset(ptr noundef nonnull %2) #16
  %13 = getelementptr inbounds nuw i8, ptr %10, i64 160
  %14 = load ptr, ptr %13, align 8, !tbaa !29
  %15 = call i32 @reftable_buf_addstr(ptr noundef nonnull %2, ptr noundef %14) #16
  %16 = icmp slt i32 %15, 0
  br i1 %16, label %stack_filename.exit.thread, label %17

17:                                               ; preds = %8
  %18 = call i32 @reftable_buf_addstr(ptr noundef nonnull %2, ptr noundef nonnull @.str.5) #16
  %19 = icmp slt i32 %18, 0
  br i1 %19, label %stack_filename.exit.thread, label %stack_filename.exit

stack_filename.exit:                              ; preds = %17
  %20 = call i32 @reftable_buf_addstr(ptr noundef nonnull %2, ptr noundef %12) #16
  %.not = icmp sgt i32 %20, -1
  br i1 %.not, label %21, label %stack_filename.exit.thread

21:                                               ; preds = %stack_filename.exit
  %22 = load ptr, ptr %7, align 8, !tbaa !50
  %23 = call i32 @unlink(ptr noundef %22) #16
  br label %stack_filename.exit.thread

stack_filename.exit.thread:                       ; preds = %17, %8, %21, %stack_filename.exit
  %24 = load ptr, ptr %6, align 8, !tbaa !70
  %25 = getelementptr inbounds nuw ptr, ptr %24, i64 %.016
  %26 = load ptr, ptr %25, align 8, !tbaa !43
  call void @reftable_free(ptr noundef %26) #16
  %27 = load ptr, ptr %6, align 8, !tbaa !70
  %28 = getelementptr inbounds nuw ptr, ptr %27, i64 %.016
  store ptr null, ptr %28, align 8, !tbaa !43
  %29 = add nuw i64 %.016, 1
  %30 = load i64, ptr %3, align 8, !tbaa !67
  %31 = icmp ult i64 %29, %30
  br i1 %31, label %8, label %._crit_edge, !llvm.loop !72

._crit_edge:                                      ; preds = %stack_filename.exit.thread, %.._crit_edge_crit_edge
  %32 = phi ptr [ %.pre18, %.._crit_edge_crit_edge ], [ %27, %stack_filename.exit.thread ]
  %33 = getelementptr inbounds nuw i8, ptr %0, i64 32
  call void @reftable_free(ptr noundef %32) #16
  call void @llvm.memset.p0.i64(ptr noundef nonnull align 8 dereferenceable(24) %33, i8 0, i64 24, i1 false)
  %34 = call i32 @flock_release(ptr noundef nonnull %0) #16
  call void @reftable_buf_release(ptr noundef nonnull %2) #16
  call void @llvm.lifetime.end.p0(i64 24, ptr nonnull %2) #16
  ret void
}